target datalayout = "e-m:e-p270:32:32-p271:32:32-p272:64:64-i64:64-i128:128-f80:128-n8:16:32:64-S128"
target triple = "x86_64-pc-linux-gnu"

%struct._zval_struct = type { %union._zend_value, %union.anon, %union.anon.2 }
%union._zend_value = type { i64 }
%union.anon = type { i32 }
%union.anon.2 = type { i32 }
%struct._zend_string = type { %struct._zend_refcounted_h, i64, i64, [1 x i8] }
%struct._zend_refcounted_h = type { i32, %union.anon.3 }
%union.anon.3 = type { i32 }

@.str = private unnamed_addr constant [66 x i8] c"abcdefghijklmnopqrstuvwxyzABCDEFGHIJKLMNOPQRSTUVWXYZ0123456789-._\00", align 1
@hexchars = internal constant [17 x i8] c"0123456789ABCDEF\00", align 16

; Function Attrs: alwaysinline nounwind uwtable
define internal i32 @zend_gc_set_refcount(ptr noundef %0, i32 noundef %1) #3 {
  %3 = alloca ptr, align 8
  %4 = alloca i32, align 4
  store ptr %0, ptr %3, align 8, !tbaa !28
  store i32 %1, ptr %4, align 4, !tbaa !24
  %5 = load i32, ptr %4, align 4, !tbaa !24
  %6 = load ptr, ptr %3, align 8, !tbaa !28
  %7 = getelementptr inbounds nuw %struct._zend_refcounted_h, ptr %6, i32 0, i32 0
  store i32 %5, ptr %7, align 4, !tbaa !30
  %8 = load ptr, ptr %3, align 8, !tbaa !28
  %9 = getelementptr inbounds nuw %struct._zend_refcounted_h, ptr %8, i32 0, i32 0
  %10 = load i32, ptr %9, align 4, !tbaa !30
  ret i32 %10
}

; Function Attrs: alwaysinline nounwind uwtable
define internal ptr @zend_string_safe_alloc(i64 noundef %0, i64 noundef %1, i64 noundef %2, i1 noundef zeroext %3) #3 {
  %5 = alloca i64, align 8
  %6 = alloca i64, align 8
  %7 = alloca i64, align 8
  %8 = alloca i8, align 1
  %9 = alloca ptr, align 8
  store i64 %0, ptr %5, align 8, !tbaa !9
  store i64 %1, ptr %6, align 8, !tbaa !9
  store i64 %2, ptr %7, align 8, !tbaa !9
  %10 = zext i1 %3 to i8
  store i8 %10, ptr %8, align 1, !tbaa !20
  call void @llvm.lifetime.start.p0(i64 8, ptr %9) #12
  %11 = load i8, ptr %8, align 1, !tbaa !20, !range !22, !noundef !23
  %12 = trunc i8 %11 to i1
  br i1 %12, label %13, label %23

13:                                               ; preds = %4
  %14 = load i64, ptr %5, align 8, !tbaa !9
  %15 = load i64, ptr %6, align 8, !tbaa !9
  %16 = load i64, ptr %7, align 8, !tbaa !9
  %17 = add i64 24, %16
  %18 = add i64 %17, 1
  %19 = add i64 %18, 8
  %20 = sub i64 %19, 1
  %21 = and i64 %20, -8
  %22 = call noalias ptr @_safe_malloc(i64 noundef %14, i64 noundef %15, i64 noundef %21)
  br label %33

23:                                               ; preds = %4
  %24 = load i64, ptr %5, align 8, !tbaa !9
  %25 = load i64, ptr %6, align 8, !tbaa !9
  %26 = load i64, ptr %7, align 8, !tbaa !9
  %27 = add i64 24, %26
  %28 = add i64 %27, 1
  %29 = add i64 %28, 8
  %30 = sub i64 %29, 1
  %31 = and i64 %30, -8
  %32 = call noalias ptr @_safe_emalloc(i64 noundef %24, i64 noundef %25, i64 noundef %31)
  br label %33

33:                                               ; preds = %23, %13
  %34 = phi ptr [ %22, %13 ], [ %32, %23 ]
  store ptr %34, ptr %9, align 8, !tbaa !18
  %35 = load ptr, ptr %9, align 8, !tbaa !18
  %36 = getelementptr inbounds nuw %struct._zend_string, ptr %35, i32 0, i32 0
  %37 = call i32 @zend_gc_set_refcount(ptr noundef %36, i32 noundef 1)
  %38 = load i8, ptr %8, align 1, !tbaa !20, !range !22, !noundef !23
  %39 = trunc i8 %38 to i1
  %40 = select i1 %39, i32 128, i32 0
  %41 = shl i32 %40, 0
  %42 = or i32 22, %41
  %43 = load ptr, ptr %9, align 8, !tbaa !18
  %44 = getelementptr inbounds nuw %struct._zend_string, ptr %43, i32 0, i32 0
  %45 = getelementptr inbounds nuw %struct._zend_refcounted_h, ptr %44, i32 0, i32 1
  store i32 %42, ptr %45, align 4, !tbaa !13
  %46 = load ptr, ptr %9, align 8, !tbaa !18
  %47 = getelementptr inbounds nuw %struct._zend_string, ptr %46, i32 0, i32 1
  store i64 0, ptr %47, align 8, !tbaa !27
  %48 = load i64, ptr %5, align 8, !tbaa !9
  %49 = load i64, ptr %6, align 8, !tbaa !9
  %50 = mul i64 %48, %49
  %51 = load i64, ptr %7, align 8, !tbaa !9
  %52 = add i64 %50, %51
  %53 = load ptr, ptr %9, align 8, !tbaa !18
  %54 = getelementptr inbounds nuw %struct._zend_string, ptr %53, i32 0, i32 2
  store i64 %52, ptr %54, align 8, !tbaa !14
  %55 = load ptr, ptr %9, align 8, !tbaa !18
  call void @llvm.lifetime.end.p0(i64 8, ptr %9) #12
  ret ptr %55
}

; Function Attrs: nounwind uwtable
define internal void @php_filter_encode_url(ptr noundef %0, ptr noundef %1, i32 noundef %2, i32 noundef %3, i32 noundef %4, i32 noundef %5) #0 {
  %7 = alloca ptr, align 8
  %8 = alloca ptr, align 8
  %9 = alloca i32, align 4
  %10 = alloca i32, align 4
  %11 = alloca i32, align 4
  %12 = alloca i32, align 4
  %13 = alloca ptr, align 8
  %14 = alloca [256 x i8], align 16
  %15 = alloca ptr, align 8
  %16 = alloca ptr, align 8
  %17 = alloca ptr, align 8
  %18 = alloca ptr, align 8
  %19 = alloca ptr, align 8
  store ptr %0, ptr %7, align 8, !tbaa !4
  store ptr %1, ptr %8, align 8, !tbaa !11
  store i32 %2, ptr %9, align 4, !tbaa !24
  store i32 %3, ptr %10, align 4, !tbaa !24
  store i32 %4, ptr %11, align 4, !tbaa !24
  store i32 %5, ptr %12, align 4, !tbaa !24
  call void @llvm.lifetime.start.p0(i64 8, ptr %13) #12
  call void @llvm.lifetime.start.p0(i64 256, ptr %14) #12
  call void @llvm.lifetime.start.p0(i64 8, ptr %15) #12
  %20 = load ptr, ptr %8, align 8, !tbaa !11
  store ptr %20, ptr %15, align 8, !tbaa !11
  call void @llvm.lifetime.start.p0(i64 8, ptr %16) #12
  %21 = load ptr, ptr %15, align 8, !tbaa !11
  %22 = load i32, ptr %9, align 4, !tbaa !24
  %23 = sext i32 %22 to i64
  %24 = getelementptr inbounds i8, ptr %21, i64 %23
  store ptr %24, ptr %16, align 8, !tbaa !11
  call void @llvm.lifetime.start.p0(i64 8, ptr %17) #12
  %25 = getelementptr inbounds [256 x i8], ptr %14, i64 0, i64 0
  call void @llvm.memset.p0.i64(ptr align 16 %25, i8 1, i64 255, i1 false)
  br label %26

26:                                               ; preds = %30, %6
  %27 = load ptr, ptr %15, align 8, !tbaa !11
  %28 = load ptr, ptr %16, align 8, !tbaa !11
  %29 = icmp ult ptr %27, %28
  br i1 %29, label %30, label %36

30:                                               ; preds = %26
  %31 = load ptr, ptr %15, align 8, !tbaa !11
  %32 = getelementptr inbounds nuw i8, ptr %31, i32 1
  store ptr %32, ptr %15, align 8, !tbaa !11
  %33 = load i8, ptr %31, align 1, !tbaa !13
  %34 = zext i8 %33 to i64
  %35 = getelementptr inbounds nuw [256 x i8], ptr %14, i64 0, i64 %34
  store i8 0, ptr %35, align 1, !tbaa !13
  br label %26

36:                                               ; preds = %26
  %37 = load ptr, ptr %7, align 8, !tbaa !4
  %38 = getelementptr inbounds nuw %struct._zval_struct, ptr %37, i32 0, i32 0
  %39 = load ptr, ptr %38, align 8, !tbaa !13
  %40 = getelementptr inbounds nuw %struct._zend_string, ptr %39, i32 0, i32 2
  %41 = load i64, ptr %40, align 8, !tbaa !14
  %42 = call ptr @zend_string_safe_alloc(i64 noundef %41, i64 noundef 3, i64 noundef 0, i1 noundef zeroext false)
  store ptr %42, ptr %17, align 8, !tbaa !18
  %43 = load ptr, ptr %17, align 8, !tbaa !18
  %44 = getelementptr inbounds nuw %struct._zend_string, ptr %43, i32 0, i32 3
  %45 = getelementptr inbounds [1 x i8], ptr %44, i64 0, i64 0
  store ptr %45, ptr %13, align 8, !tbaa !11
  %46 = load ptr, ptr %7, align 8, !tbaa !4
  %47 = getelementptr inbounds nuw %struct._zval_struct, ptr %46, i32 0, i32 0
  %48 = load ptr, ptr %47, align 8, !tbaa !13
  %49 = getelementptr inbounds nuw %struct._zend_string, ptr %48, i32 0, i32 3
  %50 = getelementptr inbounds [1 x i8], ptr %49, i64 0, i64 0
  store ptr %50, ptr %15, align 8, !tbaa !11
  %51 = load ptr, ptr %15, align 8, !tbaa !11
  %52 = load ptr, ptr %7, align 8, !tbaa !4
  %53 = getelementptr inbounds nuw %struct._zval_struct, ptr %52, i32 0, i32 0
  %54 = load ptr, ptr %53, align 8, !tbaa !13
  %55 = getelementptr inbounds nuw %struct._zend_string, ptr %54, i32 0, i32 2
  %56 = load i64, ptr %55, align 8, !tbaa !14
  %57 = getelementptr inbounds nuw i8, ptr %51, i64 %56
  store ptr %57, ptr %16, align 8, !tbaa !11
  br label %58

58:                                               ; preds = %95, %36
  %59 = load ptr, ptr %15, align 8, !tbaa !11
  %60 = load ptr, ptr %16, align 8, !tbaa !11
  %61 = icmp ult ptr %59, %60
  br i1 %61, label %62, label %98

62:                                               ; preds = %58
  %63 = load ptr, ptr %15, align 8, !tbaa !11
  %64 = load i8, ptr %63, align 1, !tbaa !13
  %65 = zext i8 %64 to i64
  %66 = getelementptr inbounds nuw [256 x i8], ptr %14, i64 0, i64 %65
  %67 = load i8, ptr %66, align 1, !tbaa !13
  %68 = icmp ne i8 %67, 0
  br i1 %68, label %69, label %90

69:                                               ; preds = %62
  %70 = load ptr, ptr %13, align 8, !tbaa !11
  %71 = getelementptr inbounds nuw i8, ptr %70, i32 1
  store ptr %71, ptr %13, align 8, !tbaa !11
  store i8 37, ptr %70, align 1, !tbaa !13
  %72 = load ptr, ptr %15, align 8, !tbaa !11
  %73 = load i8, ptr %72, align 1, !tbaa !13
  %74 = zext i8 %73 to i32
  %75 = ashr i32 %74, 4
  %76 = sext i32 %75 to i64
  %77 = getelementptr inbounds [17 x i8], ptr @hexchars, i64 0, i64 %76
  %78 = load i8, ptr %77, align 1, !tbaa !13
  %79 = load ptr, ptr %13, align 8, !tbaa !11
  %80 = getelementptr inbounds nuw i8, ptr %79, i32 1
  store ptr %80, ptr %13, align 8, !tbaa !11
  store i8 %78, ptr %79, align 1, !tbaa !13
  %81 = load ptr, ptr %15, align 8, !tbaa !11
  %82 = load i8, ptr %81, align 1, !tbaa !13
  %83 = zext i8 %82 to i32
  %84 = and i32 %83, 15
  %85 = sext i32 %84 to i64
  %86 = getelementptr inbounds [17 x i8], ptr @hexchars, i64 0, i64 %85
  %87 = load i8, ptr %86, align 1, !tbaa !13
  %88 = load ptr, ptr %13, align 8, !tbaa !11
  %89 = getelementptr inbounds nuw i8, ptr %88, i32 1
  store ptr %89, ptr %13, align 8, !tbaa !11
  store i8 %87, ptr %88, align 1, !tbaa !13
  br label %95

90:                                               ; preds = %62
  %91 = load ptr, ptr %15, align 8, !tbaa !11
  %92 = load i8, ptr %91, align 1, !tbaa !13
  %93 = load ptr, ptr %13, align 8, !tbaa !11
  %94 = getelementptr inbounds nuw i8, ptr %93, i32 1
  store ptr %94, ptr %13, align 8, !tbaa !11
  store i8 %92, ptr %93, align 1, !tbaa !13
  br label %95

95:                                               ; preds = %90, %69
  %96 = load ptr, ptr %15, align 8, !tbaa !11
  %97 = getelementptr inbounds nuw i8, ptr %96, i32 1
  store ptr %97, ptr %15, align 8, !tbaa !11
  br label %58

98:                                               ; preds = %58
  %99 = load ptr, ptr %13, align 8, !tbaa !11
  store i8 0, ptr %99, align 1, !tbaa !13
  %100 = load ptr, ptr %13, align 8, !tbaa !11
  %101 = load ptr, ptr %17, align 8, !tbaa !18
  %102 = getelementptr inbounds nuw %struct._zend_string, ptr %101, i32 0, i32 3
  %103 = getelementptr inbounds [1 x i8], ptr %102, i64 0, i64 0
  %104 = ptrtoint ptr %100 to i64
  %105 = ptrtoint ptr %103 to i64
  %106 = sub i64 %104, %105
  %107 = load ptr, ptr %17, align 8, !tbaa !18
  %108 = getelementptr inbounds nuw %struct._zend_string, ptr %107, i32 0, i32 2
  store i64 %106, ptr %108, align 8, !tbaa !14
  %109 = load ptr, ptr %7, align 8, !tbaa !4
  call void @zval_ptr_dtor(ptr noundef %109)
  br label %110

110:                                              ; preds = %98
  call void @llvm.lifetime.start.p0(i64 8, ptr %18) #12
  %111 = load ptr, ptr %7, align 8, !tbaa !4
  store ptr %111, ptr %18, align 8, !tbaa !4
  call void @llvm.lifetime.start.p0(i64 8, ptr %19) #12
  %112 = load ptr, ptr %17, align 8, !tbaa !18
  store ptr %112, ptr %19, align 8, !tbaa !18
  %113 = load ptr, ptr %19, align 8, !tbaa !18
  %114 = load ptr, ptr %18, align 8, !tbaa !4
  %115 = getelementptr inbounds nuw %struct._zval_struct, ptr %114, i32 0, i32 0
  store ptr %113, ptr %115, align 8, !tbaa !13
  %116 = load ptr, ptr %18, align 8, !tbaa !4
  %117 = getelementptr inbounds nuw %struct._zval_struct, ptr %116, i32 0, i32 1
  store i32 262, ptr %117, align 8, !tbaa !13
  call void @llvm.lifetime.end.p0(i64 8, ptr %19) #12
  call void @llvm.lifetime.end.p0(i64 8, ptr %18) #12
  br label %118

118:                                              ; preds = %110
  br label %119

119:                                              ; preds = %118
  call void @llvm.lifetime.end.p0(i64 8, ptr %17) #12
  call void @llvm.lifetime.end.p0(i64 8, ptr %16) #12
  call void @llvm.lifetime.end.p0(i64 8, ptr %15) #12
  call void @llvm.lifetime.end.p0(i64 256, ptr %14) #12
  call void @llvm.lifetime.end.p0(i64 8, ptr %13) #12
  ret void
}

; Function Attrs: nounwind uwtable
define hidden void @php_filter_encoded(ptr noundef %0, i64 noundef %1, ptr noundef %2, ptr noundef %3) #0 {
  %5 = alloca ptr, align 8
  %6 = alloca i64, align 8
  %7 = alloca ptr, align 8
  %8 = alloca ptr, align 8
  store ptr %0, ptr %5, align 8, !tbaa !4
  store i64 %1, ptr %6, align 8, !tbaa !9
  store ptr %2, ptr %7, align 8, !tbaa !4
  store ptr %3, ptr %8, align 8, !tbaa !11
  %9 = load ptr, ptr %5, align 8, !tbaa !4
  %10 = load i64, ptr %6, align 8, !tbaa !9
  call void @php_filter_strip(ptr noundef %9, i64 noundef %10)
  %11 = load ptr, ptr %5, align 8, !tbaa !4
  %12 = load i64, ptr %6, align 8, !tbaa !9
  %13 = and i64 %12, 32
  %14 = trunc i64 %13 to i32
  %15 = load i64, ptr %6, align 8, !tbaa !9
  %16 = and i64 %15, 16
  %17 = trunc i64 %16 to i32
  call void @php_filter_encode_url(ptr noundef %11, ptr noundef @.str, i32 noundef 65, i32 noundef %14, i32 noundef %17, i32 noundef 1)
  ret void
}