; Function Attrs: nounwind uwtable
define hidden void @php_filter_encoded(ptr noundef %0, i64 noundef %1, ptr noundef readnone captures(none) %2, ptr noundef readnone captures(none) %3) local_unnamed_addr #0 {
  %5 = alloca [256 x i8], align 16
  tail call fastcc void @php_filter_strip(ptr noundef %0, i64 noundef %1)
  call void @llvm.lifetime.start.p0(i64 256, ptr nonnull %5) #9
  call void @llvm.memset.p0.i64(ptr noundef nonnull align 16 dereferenceable(255) %5, i8 1, i64 255, i1 false)
  br label %6

6:                                                ; preds = %6, %4
  %.031.idx1.i = phi i64 [ 0, %4 ], [ %.031.add.i, %6 ]
  %.031.ptr.i = getelementptr inbounds nuw i8, ptr @.str, i64 %.031.idx1.i
  %.031.add.i = add nuw nsw i64 %.031.idx1.i, 1
  %7 = load i8, ptr %.031.ptr.i, align 1, !tbaa !4
  %8 = zext i8 %7 to i64
  %9 = getelementptr inbounds nuw [256 x i8], ptr %5, i64 0, i64 %8
  store i8 0, ptr %9, align 1, !tbaa !4
  %exitcond.not.i = icmp eq i64 %.031.add.i, 65
  br i1 %exitcond.not.i, label %10, label %6

10:                                               ; preds = %6
  %11 = load ptr, ptr %0, align 8, !tbaa !4
  %12 = getelementptr inbounds nuw i8, ptr %11, i64 16
  %13 = load i64, ptr %12, align 8, !tbaa !7
  %14 = tail call noalias ptr @_safe_emalloc(i64 noundef %13, i64 noundef 3, i64 noundef 32) #9
  store i32 1, ptr %14, align 4, !tbaa !12
  %15 = getelementptr inbounds nuw i8, ptr %14, i64 4
  store i32 22, ptr %15, align 4, !tbaa !4
  %16 = getelementptr inbounds nuw i8, ptr %14, i64 8
  store i64 0, ptr %16, align 8, !tbaa !13
  %17 = getelementptr inbounds nuw i8, ptr %14, i64 24
  %18 = load ptr, ptr %0, align 8, !tbaa !4
  %19 = getelementptr inbounds nuw i8, ptr %18, i64 16
  %20 = load i64, ptr %19, align 8, !tbaa !7
  %21 = getelementptr i8, ptr %18, i64 %20
  %.ptr4.i = getelementptr i8, ptr %21, i64 24
  %22 = icmp sgt i64 %20, 0
  br i1 %22, label %.lr.ph.preheader.i, label %php_filter_encode_url.exit

.lr.ph.preheader.i:                               ; preds = %10
  %.ptr.i = getelementptr inbounds nuw i8, ptr %18, i64 24
  br label %.lr.ph.i

.lr.ph.i:                                         ; preds = %42, %.lr.ph.preheader.i
  %.03.i = phi ptr [ %.1.i, %42 ], [ %17, %.lr.ph.preheader.i ]
  %.1322.i = phi ptr [ %43, %42 ], [ %.ptr.i, %.lr.ph.preheader.i ]
  %23 = load i8, ptr %.1322.i, align 1, !tbaa !4
  %24 = zext i8 %23 to i64
  %25 = getelementptr inbounds nuw [256 x i8], ptr %5, i64 0, i64 %24
  %26 = load i8, ptr %25, align 1, !tbaa !4
  %.not.i = icmp eq i8 %26, 0
  %27 = getelementptr inbounds nuw i8, ptr %.03.i, i64 1
  br i1 %.not.i, label %41, label %28

28:                                               ; preds = %.lr.ph.i
  store i8 37, ptr %.03.i, align 1, !tbaa !4
  %29 = load i8, ptr %.1322.i, align 1, !tbaa !4
  %30 = lshr i8 %29, 4
  %31 = zext nneg i8 %30 to i64
  %32 = getelementptr inbounds nuw [17 x i8], ptr @hexchars, i64 0, i64 %31
  %33 = load i8, ptr %32, align 1, !tbaa !4
  %34 = getelementptr inbounds nuw i8, ptr %.03.i, i64 2
  store i8 %33, ptr %27, align 1, !tbaa !4
  %35 = load i8, ptr %.1322.i, align 1, !tbaa !4
  %36 = and i8 %35, 15
  %37 = zext nneg i8 %36 to i64
  %38 = getelementptr inbounds nuw [17 x i8], ptr @hexchars, i64 0, i64 %37
  %39 = load i8, ptr %38, align 1, !tbaa !4
  %40 = getelementptr inbounds nuw i8, ptr %.03.i, i64 3
  store i8 %39, ptr %34, align 1, !tbaa !4
  br label %42

41:                                               ; preds = %.lr.ph.i
  store i8 %23, ptr %.03.i, align 1, !tbaa !4
  br label %42

42:                                               ; preds = %41, %28
  %.1.i = phi ptr [ %40, %28 ], [ %27, %41 ]
  %43 = getelementptr inbounds nuw i8, ptr %.1322.i, i64 1
  %44 = icmp ult ptr %43, %.ptr4.i
  br i1 %44, label %.lr.ph.i, label %php_filter_encode_url.exit

php_filter_encode_url.exit:                       ; preds = %42, %10
  %.0.lcssa.i = phi ptr [ %17, %10 ], [ %.1.i, %42 ]
  %45 = getelementptr inbounds nuw i8, ptr %14, i64 16
  store i8 0, ptr %.0.lcssa.i, align 1, !tbaa !4
  %46 = ptrtoint ptr %.0.lcssa.i to i64
  %47 = ptrtoint ptr %17 to i64
  %48 = sub i64 %46, %47
  store i64 %48, ptr %45, align 8, !tbaa !7
  tail call void @zval_ptr_dtor(ptr noundef nonnull %0) #9
  store ptr %14, ptr %0, align 8, !tbaa !4
  %49 = getelementptr inbounds nuw i8, ptr %0, i64 8
  store i32 262, ptr %49, align 8, !tbaa !4
  call void @llvm.lifetime.end.p0(i64 256, ptr nonnull %5) #9
  ret void
}